; Function Attrs: mustprogress uwtable
define internal noundef zeroext i1 @"_ZN4absl12lts_2023080222internal_any_invocable12LocalInvokerILb0EbRKZN9grpc_core26RegisterChannelIdleFiltersEPNS3_17CoreConfiguration7BuilderEE3$_0JRKNS3_11ChannelArgsEEEET0_PNS1_15TypeErasedStateEDpNS1_18ForwardedParameterIT2_E4typeE"(ptr nocapture readnone %state, ptr noundef nonnull align 8 dereferenceable(8) %args) #3 personality ptr @__gxx_personality_v0 {
entry:
  %call.i.i.i.i.i.i = tail call { i64, i8 } @_ZNK9grpc_core11ChannelArgs24GetDurationFromIntMillisESt17basic_string_viewIcSt11char_traitsIcEE(ptr noundef nonnull align 8 dereferenceable(8) %args, i64 27, ptr nonnull @.str.10)
  %0 = extractvalue { i64, i8 } %call.i.i.i.i.i.i, 0
  %1 = extractvalue { i64, i8 } %call.i.i.i.i.i.i, 1
  %call.i.i1.i.i.i.i.i.i = tail call noundef zeroext i1 @_ZN9grpc_core19IsExperimentEnabledEm(i64 noundef 2)
  %2 = and i8 %1, 1
  %tobool.i.not.i.i.i.i.i.i.i = icmp eq i8 %2, 0
  %cmp.i1.i.i.i.i.i = icmp ne i64 %0, 9223372036854775807
  %cmp.i.i.i.i.i.i = select i1 %tobool.i.not.i.i.i.i.i.i.i, i1 %call.i.i1.i.i.i.i.i.i, i1 %cmp.i1.i.i.i.i.i
  ret i1 %cmp.i.i.i.i.i.i
}